; Function Attrs: null_pointer_is_valid sspstrong uwtable
define hidden void @nvme_publish_qid(ptr noundef %0, i32 noundef %1, i16 noundef zeroext %2) local_unnamed_addr #0 {
  %4 = zext i16 %2 to i32
  %.not = icmp eq i16 %2, 0
  %5 = select i1 %.not, ptr @.str.1, ptr @.str
  %6 = tail call ptr (ptr, i32, ptr, i32, i32, i32, ptr, ...) @proto_tree_add_uint_format_value(ptr noundef %0, i32 noundef %1, ptr noundef null, i32 noundef 0, i32 noundef 0, i32 noundef %4, ptr noundef nonnull %5, i32 noundef %4)
  %.not.i = icmp eq ptr %6, null
  br i1 %.not.i, label %proto_item_set_generated.exit, label %7

7:                                                ; preds = %3
  %8 = getelementptr inbounds nuw i8, ptr %6, i64 40
  %9 = load ptr, ptr %8, align 8
  %.not5.i = icmp eq ptr %9, null
  br i1 %.not5.i, label %proto_item_set_generated.exit, label %10

10:                                               ; preds = %7
  %11 = getelementptr inbounds nuw i8, ptr %9, i64 28
  %12 = load i32, ptr %11, align 4
  %13 = or i32 %12, 2
  store i32 %13, ptr %11, align 4
  br label %proto_item_set_generated.exit

proto_item_set_generated.exit:                    ; preds = %3, %7, %10
  ret void
}